target datalayout = "e-m:e-p270:32:32-p271:32:32-p272:64:64-i64:64-i128:128-f80:128-n8:16:32:64-S128"
target triple = "x86_64-pc-linux-gnu"

%struct.pmix_lock_t = type { i32, %struct.pmix_mutex_t, %union.pthread_cond_t, i8 }
%struct.pmix_mutex_t = type { %struct.pmix_object_t, %union.pthread_mutex_t }
%struct.pmix_object_t = type { %union.pthread_mutex_t, ptr, i32, %struct.pmix_tma }
%struct.pmix_tma = type { ptr, ptr, ptr, ptr, ptr, ptr, ptr, ptr }
%union.pthread_mutex_t = type { %struct.__pthread_mutex_s }
%struct.__pthread_mutex_s = type { i32, i32, i32, i32, i32, i16, i16, %struct.__pthread_internal_list }
%struct.__pthread_internal_list = type { ptr, ptr }
%union.pthread_cond_t = type { %struct.__pthread_cond_s }
%struct.__pthread_cond_s = type { %union.__atomic_wide_counter, %union.__atomic_wide_counter, [2 x i32], [2 x i32], i32, i32, [2 x i32] }
%union.__atomic_wide_counter = type { i64 }
%struct.timeval = type { i64, i64 }
%struct.pmix_list_t = type { %struct.pmix_object_t, %struct.pmix_list_item_t, i64 }
%struct.pmix_list_item_t = type { %struct.pmix_object_t, ptr, ptr, i32 }
%struct.pmix_iof_flags_t = type { i8, i8, i8, i8, i8, i8, i8, ptr, ptr, i8, i8, i8, i8, i8, i8 }
%struct.pmix_output_desc_t = type { i8, i8, i32, i8, i32, ptr, ptr, i32, ptr, i32, i8, i8, i8, i8, ptr, i32, i32 }
%struct.pmix_class_t = type { ptr, ptr, ptr, ptr, i32, i32, ptr, ptr, i64 }
%struct.pmix_peer_t = type { %struct.pmix_object_t, ptr, ptr, %struct.pmix_proc_type_t, i16, i32, i32, i32, i8, %struct.event, i8, %struct.event, i8, %struct.pmix_list_t, ptr, ptr, i32, %struct.pmix_epilog_t }
%struct.pmix_proc_type_t = type { i32, i8, i8, i8, i8 }
%struct.event = type { %struct.event_callback, %union.anon.2, i32, ptr, %union.anon.4, i16, i16, %struct.timeval }
%struct.event_callback = type { %struct.anon.0, i16, i8, i8, %union.anon.1, ptr }
%struct.anon.0 = type { ptr, ptr }
%union.anon.1 = type { ptr }
%union.anon.2 = type { %struct.anon.3 }
%struct.anon.3 = type { ptr, ptr }
%union.anon.4 = type { %struct.anon.5 }
%struct.anon.5 = type { %struct.anon.6, %struct.timeval }
%struct.anon.6 = type { ptr, ptr }
%struct.pmix_epilog_t = type { i32, i32, %struct.pmix_list_t, %struct.pmix_list_t, %struct.pmix_list_t }
%struct.pmix_name_t = type { ptr, i32 }
%struct.pmix_namespace_t = type { %struct.pmix_list_item_t, ptr, %struct.anon.9, i32, i64, i64, i8, i8, ptr, i64, i64, %struct.pmix_list_t, %struct.pmix_personality_t, %struct.pmix_epilog_t, %struct.pmix_list_t, %struct.pmix_iof_flags_t, %struct.pmix_list_t }
%struct.anon.9 = type { i8, i8, i8 }
%struct.pmix_personality_t = type { i8, ptr, ptr, ptr }
%struct.pmix_bfrops_module_t = type { ptr, ptr, ptr, ptr, ptr, ptr, ptr, ptr, ptr, ptr, ptr, ptr, ptr }
%struct.pmix_buffer_t = type { %struct.pmix_object_t, i8, ptr, ptr, ptr, i64, i64 }
%struct.pmix_cb_t = type { %struct.pmix_list_item_t, %struct.event, %struct.pmix_lock_t, i8, i32, i32, i8, %struct.pmix_buffer_t, %union.anon.10, i64, ptr, %struct.pmix_name_t, ptr, ptr, ptr, ptr, i64, ptr, i64, ptr, i8, i64, %struct.pmix_list_t, i8, ptr, i8, ptr, ptr }
%union.anon.10 = type { ptr }

@pmix_output_info = external global [0 x %struct.pmix_output_desc_t], align 8
@.str.2 = private unnamed_addr constant [37 x i8] c"PMIX ERROR: %s in file %s at line %d\00", align 1
@.str.3 = private unnamed_addr constant [32 x i8] c"event/pmix_event_notification.c\00", align 1
@pmix_bfrops_base_output = external global i32, align 4
@.str.32 = private unnamed_addr constant [21 x i8] c"pthread_mutex_lock()\00", align 1
@.str.33 = private unnamed_addr constant [34 x i8] c"[%s:%d] UNPACK version %s type %s\00", align 1

; Function Attrs: inlinehint nounwind uwtable
define internal void @pmix_tma_free(ptr noundef %0, ptr noundef %1) #2 {
  %3 = alloca ptr, align 8
  %4 = alloca ptr, align 8
  store ptr %0, ptr %3, align 8, !tbaa !157
  store ptr %1, ptr %4, align 8, !tbaa !15
  %5 = load ptr, ptr %3, align 8, !tbaa !157
  %6 = icmp ne ptr null, %5
  br i1 %6, label %7, label %13

7:                                                ; preds = %2
  %8 = load ptr, ptr %3, align 8, !tbaa !157
  %9 = getelementptr inbounds nuw %struct.pmix_tma, ptr %8, i32 0, i32 5
  %10 = load ptr, ptr %9, align 8, !tbaa !159
  %11 = load ptr, ptr %3, align 8, !tbaa !157
  %12 = load ptr, ptr %4, align 8, !tbaa !15
  call void %10(ptr noundef %11, ptr noundef %12)
  br label %15

13:                                               ; preds = %2
  %14 = load ptr, ptr %4, align 8, !tbaa !15
  call void @free(ptr noundef %14) #13
  br label %15

15:                                               ; preds = %13, %7
  ret void
}

; Function Attrs: inlinehint nounwind uwtable
define internal void @pmix_obj_run_destructors(ptr noundef %0) #2 {
  %2 = alloca ptr, align 8
  %3 = alloca ptr, align 8
  store ptr %0, ptr %2, align 8, !tbaa !124
  call void @llvm.lifetime.start.p0(i64 8, ptr %3) #13
  %4 = load ptr, ptr %2, align 8, !tbaa !124
  %5 = getelementptr inbounds nuw %struct.pmix_object_t, ptr %4, i32 0, i32 1
  %6 = load ptr, ptr %5, align 8, !tbaa !153
  %7 = getelementptr inbounds nuw %struct.pmix_class_t, ptr %6, i32 0, i32 7
  %8 = load ptr, ptr %7, align 8, !tbaa !154
  store ptr %8, ptr %3, align 8, !tbaa !15
  br label %9

9:                                                ; preds = %13, %1
  %10 = load ptr, ptr %3, align 8, !tbaa !15
  %11 = load ptr, ptr %10, align 8, !tbaa !15
  %12 = icmp ne ptr null, %11
  br i1 %12, label %13, label %19

13:                                               ; preds = %9
  %14 = load ptr, ptr %3, align 8, !tbaa !15
  %15 = load ptr, ptr %14, align 8, !tbaa !15
  %16 = load ptr, ptr %2, align 8, !tbaa !124
  call void %15(ptr noundef %16)
  %17 = load ptr, ptr %3, align 8, !tbaa !15
  %18 = getelementptr inbounds nuw ptr, ptr %17, i32 1
  store ptr %18, ptr %3, align 8, !tbaa !15
  br label %9, !llvm.loop !156

19:                                               ; preds = %9
  call void @llvm.lifetime.end.p0(i64 8, ptr %3) #13
  ret void
}

; Function Attrs: alwaysinline nounwind uwtable
define internal i32 @pmix_obj_update(ptr noundef %0, i32 noundef %1) #6 {
  %3 = alloca ptr, align 8
  %4 = alloca i32, align 4
  %5 = alloca i32, align 4
  store ptr %0, ptr %3, align 8, !tbaa !124
  store i32 %1, ptr %4, align 4, !tbaa !3
  call void @llvm.lifetime.start.p0(i64 4, ptr %5) #13
  %6 = load ptr, ptr %3, align 8, !tbaa !124
  %7 = getelementptr inbounds nuw %struct.pmix_object_t, ptr %6, i32 0, i32 0
  %8 = call i32 @pthread_mutex_lock(ptr noundef %7) #13
  store i32 %8, ptr %5, align 4, !tbaa !3
  %9 = load i32, ptr %5, align 4, !tbaa !3
  %10 = icmp eq i32 %9, 35
  br i1 %10, label %11, label %14

11:                                               ; preds = %2
  %12 = load i32, ptr %5, align 4, !tbaa !3
  %13 = call ptr @__errno_location() #14
  store i32 %12, ptr %13, align 4, !tbaa !3
  call void @perror(ptr noundef @.str.32)
  call void @abort() #15
  unreachable

14:                                               ; preds = %2
  %15 = load i32, ptr %4, align 4, !tbaa !3
  %16 = load ptr, ptr %3, align 8, !tbaa !124
  %17 = getelementptr inbounds nuw %struct.pmix_object_t, ptr %16, i32 0, i32 2
  %18 = load i32, ptr %17, align 8, !tbaa !152
  %19 = add nsw i32 %18, %15
  store i32 %19, ptr %17, align 8, !tbaa !152
  store i32 %19, ptr %5, align 4, !tbaa !3
  %20 = load ptr, ptr %3, align 8, !tbaa !124
  %21 = getelementptr inbounds nuw %struct.pmix_object_t, ptr %20, i32 0, i32 0
  %22 = call i32 @pthread_mutex_unlock(ptr noundef %21) #13
  %23 = load i32, ptr %5, align 4, !tbaa !3
  call void @llvm.lifetime.end.p0(i64 4, ptr %5) #13
  ret i32 %23
}

; Function Attrs: nounwind uwtable
define internal void @notify_event_cbfunc(ptr noundef %0, ptr noundef %1, ptr noundef %2, ptr noundef %3) #0 {
  %5 = alloca ptr, align 8
  %6 = alloca ptr, align 8
  %7 = alloca ptr, align 8
  %8 = alloca ptr, align 8
  %9 = alloca i32, align 4
  %10 = alloca i32, align 4
  %11 = alloca i32, align 4
  %12 = alloca ptr, align 8
  %13 = alloca ptr, align 8
  store ptr %0, ptr %5, align 8, !tbaa !133
  store ptr %1, ptr %6, align 8, !tbaa !15
  store ptr %2, ptr %7, align 8, !tbaa !15
  store ptr %3, ptr %8, align 8, !tbaa !15
  call void @llvm.lifetime.start.p0(i64 4, ptr %9) #13
  call void @llvm.lifetime.start.p0(i64 4, ptr %10) #13
  store i32 -61, ptr %10, align 4, !tbaa !3
  call void @llvm.lifetime.start.p0(i64 4, ptr %11) #13
  store i32 1, ptr %11, align 4, !tbaa !3
  call void @llvm.lifetime.start.p0(i64 8, ptr %12) #13
  %14 = load ptr, ptr %8, align 8, !tbaa !15
  store ptr %14, ptr %12, align 8, !tbaa !15
  %15 = load ptr, ptr %7, align 8, !tbaa !15
  %16 = getelementptr inbounds nuw %struct.pmix_buffer_t, ptr %15, i32 0, i32 6
  %17 = load i64, ptr %16, align 8, !tbaa !176
  %18 = icmp ult i64 0, %17
  br i1 %18, label %19, label %86

19:                                               ; preds = %4
  br label %20

20:                                               ; preds = %19
  %21 = load i32, ptr @pmix_bfrops_base_output, align 4, !tbaa !3
  %22 = icmp sge i32 %21, 0
  br i1 %22, label %23, label %44

23:                                               ; preds = %20
  %24 = load i32, ptr @pmix_bfrops_base_output, align 4, !tbaa !3
  %25 = icmp slt i32 %24, 64
  br i1 %25, label %26, label %44

26:                                               ; preds = %23
  %27 = load i32, ptr @pmix_bfrops_base_output, align 4, !tbaa !3
  %28 = sext i32 %27 to i64
  %29 = getelementptr inbounds [0 x %struct.pmix_output_desc_t], ptr @pmix_output_info, i64 0, i64 %28
  %30 = getelementptr inbounds nuw %struct.pmix_output_desc_t, ptr %29, i32 0, i32 2
  %31 = load i32, ptr %30, align 4, !tbaa !62
  %32 = icmp sge i32 %31, 2
  br i1 %32, label %33, label %44

33:                                               ; preds = %26
  %34 = load i32, ptr @pmix_bfrops_base_output, align 4, !tbaa !3
  %35 = load ptr, ptr %5, align 8, !tbaa !133
  %36 = getelementptr inbounds nuw %struct.pmix_peer_t, ptr %35, i32 0, i32 1
  %37 = load ptr, ptr %36, align 8, !tbaa !95
  %38 = getelementptr inbounds nuw %struct.pmix_namespace_t, ptr %37, i32 0, i32 12
  %39 = getelementptr inbounds nuw %struct.pmix_personality_t, ptr %38, i32 0, i32 1
  %40 = load ptr, ptr %39, align 8, !tbaa !96
  %41 = getelementptr inbounds nuw %struct.pmix_bfrops_module_t, ptr %40, i32 0, i32 0
  %42 = load ptr, ptr %41, align 8, !tbaa !100
  %43 = call ptr @PMIx_Data_type_string(i16 noundef zeroext 20)
  call void (i32, ptr, ...) @pmix_output(i32 noundef %34, ptr noundef @.str.33, ptr noundef @.str.3, i32 noundef 103, ptr noundef %42, ptr noundef %43)
  br label %44

44:                                               ; preds = %33, %26, %23, %20
  %45 = load ptr, ptr %7, align 8, !tbaa !15
  %46 = getelementptr inbounds nuw %struct.pmix_buffer_t, ptr %45, i32 0, i32 1
  %47 = load i8, ptr %46, align 8, !tbaa !102
  %48 = zext i8 %47 to i32
  %49 = load ptr, ptr %5, align 8, !tbaa !133
  %50 = getelementptr inbounds nuw %struct.pmix_peer_t, ptr %49, i32 0, i32 1
  %51 = load ptr, ptr %50, align 8, !tbaa !95
  %52 = getelementptr inbounds nuw %struct.pmix_namespace_t, ptr %51, i32 0, i32 12
  %53 = getelementptr inbounds nuw %struct.pmix_personality_t, ptr %52, i32 0, i32 0
  %54 = load i8, ptr %53, align 8, !tbaa !104
  %55 = zext i8 %54 to i32
  %56 = icmp eq i32 %48, %55
  br i1 %56, label %57, label %68

57:                                               ; preds = %44
  %58 = load ptr, ptr %5, align 8, !tbaa !133
  %59 = getelementptr inbounds nuw %struct.pmix_peer_t, ptr %58, i32 0, i32 1
  %60 = load ptr, ptr %59, align 8, !tbaa !95
  %61 = getelementptr inbounds nuw %struct.pmix_namespace_t, ptr %60, i32 0, i32 12
  %62 = getelementptr inbounds nuw %struct.pmix_personality_t, ptr %61, i32 0, i32 1
  %63 = load ptr, ptr %62, align 8, !tbaa !96
  %64 = getelementptr inbounds nuw %struct.pmix_bfrops_module_t, ptr %63, i32 0, i32 4
  %65 = load ptr, ptr %64, align 8, !tbaa !177
  %66 = load ptr, ptr %7, align 8, !tbaa !15
  %67 = call i32 %65(ptr noundef %66, ptr noundef %10, ptr noundef %11, i16 noundef zeroext 20)
  store i32 %67, ptr %9, align 4, !tbaa !3
  br label %69

68:                                               ; preds = %44
  store i32 -20, ptr %9, align 4, !tbaa !3
  br label %69

69:                                               ; preds = %68, %57
  br label %70

70:                                               ; preds = %69
  br label %71

71:                                               ; preds = %70
  %72 = load i32, ptr %9, align 4, !tbaa !3
  %73 = icmp ne i32 0, %72
  br i1 %73, label %74, label %85

74:                                               ; preds = %71
  br label %75

75:                                               ; preds = %74
  %76 = load i32, ptr %9, align 4, !tbaa !3
  %77 = icmp ne i32 -2, %76
  br i1 %77, label %78, label %81

78:                                               ; preds = %75
  %79 = load i32, ptr %9, align 4, !tbaa !3
  %80 = call ptr @PMIx_Error_string(i32 noundef %79)
  call void (i32, ptr, ...) @pmix_output(i32 noundef 0, ptr noundef @.str.2, ptr noundef %80, ptr noundef @.str.3, i32 noundef 105)
  br label %81

81:                                               ; preds = %78, %75
  br label %82

82:                                               ; preds = %81
  br label %83

83:                                               ; preds = %82
  %84 = load i32, ptr %9, align 4, !tbaa !3
  store i32 %84, ptr %10, align 4, !tbaa !3
  br label %85

85:                                               ; preds = %83, %71
  br label %86

86:                                               ; preds = %85, %4
  %87 = load ptr, ptr %12, align 8, !tbaa !15
  %88 = getelementptr inbounds nuw %struct.pmix_cb_t, ptr %87, i32 0, i32 8
  %89 = load ptr, ptr %88, align 8, !tbaa !10
  %90 = icmp ne ptr null, %89
  br i1 %90, label %91, label %99

91:                                               ; preds = %86
  %92 = load ptr, ptr %12, align 8, !tbaa !15
  %93 = getelementptr inbounds nuw %struct.pmix_cb_t, ptr %92, i32 0, i32 8
  %94 = load ptr, ptr %93, align 8, !tbaa !10
  %95 = load i32, ptr %10, align 4, !tbaa !3
  %96 = load ptr, ptr %12, align 8, !tbaa !15
  %97 = getelementptr inbounds nuw %struct.pmix_cb_t, ptr %96, i32 0, i32 10
  %98 = load ptr, ptr %97, align 8, !tbaa !128
  call void %94(i32 noundef %95, ptr noundef %98)
  br label %99

99:                                               ; preds = %91, %86
  br label %100

100:                                              ; preds = %99
  call void @llvm.lifetime.start.p0(i64 8, ptr %13) #13
  %101 = load ptr, ptr %12, align 8, !tbaa !15
  store ptr %101, ptr %13, align 8, !tbaa !124
  %102 = load ptr, ptr %13, align 8, !tbaa !124
  %103 = call i32 @pmix_obj_update(ptr noundef %102, i32 noundef -1)
  %104 = icmp eq i32 0, %103
  br i1 %104, label %105, label %119

105:                                              ; preds = %100
  %106 = load ptr, ptr %13, align 8, !tbaa !124
  call void @pmix_obj_run_destructors(ptr noundef %106)
  %107 = load ptr, ptr %13, align 8, !tbaa !124
  %108 = getelementptr inbounds nuw %struct.pmix_object_t, ptr %107, i32 0, i32 3
  %109 = getelementptr inbounds nuw %struct.pmix_tma, ptr %108, i32 0, i32 5
  %110 = load ptr, ptr %109, align 8, !tbaa !126
  %111 = icmp ne ptr null, %110
  br i1 %111, label %112, label %116

112:                                              ; preds = %105
  %113 = load ptr, ptr %13, align 8, !tbaa !124
  %114 = getelementptr inbounds nuw %struct.pmix_object_t, ptr %113, i32 0, i32 3
  %115 = load ptr, ptr %12, align 8, !tbaa !15
  call void @pmix_tma_free(ptr noundef %114, ptr noundef %115)
  br label %118

116:                                              ; preds = %105
  %117 = load ptr, ptr %12, align 8, !tbaa !15
  call void @free(ptr noundef %117) #13
  br label %118

118:                                              ; preds = %116, %112
  store ptr null, ptr %12, align 8, !tbaa !15
  br label %119

119:                                              ; preds = %118, %100
  call void @llvm.lifetime.end.p0(i64 8, ptr %13) #13
  br label %120

120:                                              ; preds = %119
  br label %121

121:                                              ; preds = %120
  call void @llvm.lifetime.end.p0(i64 8, ptr %12) #13
  call void @llvm.lifetime.end.p0(i64 4, ptr %11) #13
  call void @llvm.lifetime.end.p0(i64 4, ptr %10) #13
  call void @llvm.lifetime.end.p0(i64 4, ptr %9) #13
  ret void
}