; Function Attrs: nounwind uwtable
define internal void @notify_event_cbfunc(ptr noundef readonly captures(none) %0, ptr readnone captures(none) %1, ptr noundef %2, ptr noundef %3) #0 {
  %5 = alloca i32, align 4
  %6 = alloca i32, align 4
  call void @llvm.lifetime.start.p0(i64 4, ptr nonnull %5) #15
  store i32 -61, ptr %5, align 4, !tbaa !66
  call void @llvm.lifetime.start.p0(i64 4, ptr nonnull %6) #15
  store i32 1, ptr %6, align 4, !tbaa !66
  %7 = getelementptr inbounds nuw i8, ptr %2, i64 160
  %8 = load i64, ptr %7, align 8, !tbaa !155
  %.not = icmp eq i64 %8, 0
  br i1 %.not, label %39, label %9

9:                                                ; preds = %4
  %10 = load i32, ptr @pmix_bfrops_base_output, align 4, !tbaa !66
  %or.cond = icmp ult i32 %10, 64
  br i1 %or.cond, label %11, label %23

11:                                               ; preds = %9
  %12 = zext nneg i32 %10 to i64
  %13 = getelementptr inbounds nuw [0 x %struct.pmix_output_desc_t], ptr @pmix_output_info, i64 0, i64 %12, i32 2
  %14 = load i32, ptr %13, align 4, !tbaa !54
  %15 = icmp sgt i32 %14, 1
  br i1 %15, label %16, label %23

16:                                               ; preds = %11
  %17 = getelementptr inbounds nuw i8, ptr %0, i64 120
  %18 = load ptr, ptr %17, align 8, !tbaa !95
  %19 = getelementptr inbounds nuw i8, ptr %18, i64 488
  %20 = load ptr, ptr %19, align 8, !tbaa !96
  %21 = load ptr, ptr %20, align 8, !tbaa !100
  %22 = tail call ptr @PMIx_Data_type_string(i16 noundef zeroext 20) #15
  tail call void (i32, ptr, ...) @pmix_output(i32 noundef %10, ptr noundef nonnull @.str.33, ptr noundef nonnull @.str.3, i32 noundef 103, ptr noundef %21, ptr noundef %22) #15
  br label %23

23:                                               ; preds = %16, %11, %9
  %24 = getelementptr inbounds nuw i8, ptr %2, i64 120
  %25 = load i8, ptr %24, align 8, !tbaa !102
  %26 = getelementptr inbounds nuw i8, ptr %0, i64 120
  %27 = load ptr, ptr %26, align 8, !tbaa !95
  %28 = getelementptr inbounds nuw i8, ptr %27, i64 480
  %29 = load i8, ptr %28, align 8, !tbaa !104
  %30 = icmp eq i8 %25, %29
  br i1 %30, label %31, label %.thread

31:                                               ; preds = %23
  %32 = getelementptr inbounds nuw i8, ptr %27, i64 488
  %33 = load ptr, ptr %32, align 8, !tbaa !96
  %34 = getelementptr inbounds nuw i8, ptr %33, i64 32
  %35 = load ptr, ptr %34, align 8, !tbaa !156
  %36 = call i32 %35(ptr noundef nonnull %2, ptr noundef nonnull %5, ptr noundef nonnull %6, i16 noundef zeroext 20) #15
  switch i32 %36, label %.thread [
    i32 0, label %39
    i32 -2, label %38
  ]

.thread:                                          ; preds = %23, %31
  %.030 = phi i32 [ %36, %31 ], [ -20, %23 ]
  %37 = call ptr @PMIx_Error_string(i32 noundef %.030) #15
  call void (i32, ptr, ...) @pmix_output(i32 noundef 0, ptr noundef nonnull @.str.2, ptr noundef %37, ptr noundef nonnull @.str.3, i32 noundef 105) #15
  br label %38

38:                                               ; preds = %31, %.thread
  %.029 = phi i32 [ %36, %31 ], [ %.030, %.thread ]
  store i32 %.029, ptr %5, align 4, !tbaa !66
  br label %39

39:                                               ; preds = %31, %38, %4
  %40 = getelementptr inbounds nuw i8, ptr %3, i64 680
  %41 = load ptr, ptr %40, align 8, !tbaa !85
  %.not25 = icmp eq ptr %41, null
  br i1 %.not25, label %46, label %42

42:                                               ; preds = %39
  %43 = load i32, ptr %5, align 4, !tbaa !66
  %44 = getelementptr inbounds nuw i8, ptr %3, i64 696
  %45 = load ptr, ptr %44, align 8, !tbaa !128
  call void %41(i32 noundef %43, ptr noundef %45) #15
  br label %46

46:                                               ; preds = %39, %42
  %47 = call i32 @pthread_mutex_lock(ptr noundef nonnull %3) #15
  %48 = icmp eq i32 %47, 35
  br i1 %48, label %49, label %pmix_obj_update.exit

49:                                               ; preds = %46
  %50 = tail call ptr @__errno_location() #17
  store i32 35, ptr %50, align 4, !tbaa !66
  call void @perror(ptr noundef nonnull @.str.32) #18
  call void @abort() #19
  unreachable

pmix_obj_update.exit:                             ; preds = %46
  %51 = getelementptr inbounds nuw i8, ptr %3, i64 48
  %52 = load i32, ptr %51, align 8, !tbaa !69
  %53 = add nsw i32 %52, -1
  store i32 %53, ptr %51, align 8, !tbaa !69
  %54 = call i32 @pthread_mutex_unlock(ptr noundef nonnull %3) #15
  %55 = icmp eq i32 %53, 0
  br i1 %55, label %56, label %70

56:                                               ; preds = %pmix_obj_update.exit
  %57 = getelementptr inbounds nuw i8, ptr %3, i64 40
  %58 = load ptr, ptr %57, align 8, !tbaa !68
  %59 = getelementptr inbounds nuw i8, ptr %58, i64 48
  %60 = load ptr, ptr %59, align 8, !tbaa !124
  %61 = load ptr, ptr %60, align 8, !tbaa !71
  %.not6.i = icmp eq ptr %61, null
  br i1 %.not6.i, label %pmix_obj_run_destructors.exit, label %.lr.ph.i

.lr.ph.i:                                         ; preds = %56, %.lr.ph.i
  %62 = phi ptr [ %64, %.lr.ph.i ], [ %61, %56 ]
  %.07.i = phi ptr [ %63, %.lr.ph.i ], [ %60, %56 ]
  call void %62(ptr noundef nonnull %3) #15
  %63 = getelementptr inbounds nuw i8, ptr %.07.i, i64 8
  %64 = load ptr, ptr %63, align 8, !tbaa !71
  %.not.i = icmp eq ptr %64, null
  br i1 %.not.i, label %pmix_obj_run_destructors.exit, label %.lr.ph.i, !llvm.loop !125

pmix_obj_run_destructors.exit:                    ; preds = %.lr.ph.i, %56
  %65 = getelementptr inbounds nuw i8, ptr %3, i64 96
  %66 = load ptr, ptr %65, align 8, !tbaa !126
  %.not26 = icmp eq ptr %66, null
  br i1 %.not26, label %69, label %67

67:                                               ; preds = %pmix_obj_run_destructors.exit
  %68 = getelementptr inbounds nuw i8, ptr %3, i64 56
  call void %66(ptr noundef nonnull %68, ptr noundef nonnull %3) #15
  br label %70

69:                                               ; preds = %pmix_obj_run_destructors.exit
  call void @free(ptr noundef nonnull %3) #15
  br label %70

70:                                               ; preds = %67, %69, %pmix_obj_update.exit
  call void @llvm.lifetime.end.p0(i64 4, ptr nonnull %6) #15
  call void @llvm.lifetime.end.p0(i64 4, ptr nonnull %5) #15
  ret void
}